target datalayout = "e-m:e-p270:32:32-p271:32:32-p272:64:64-i64:64-i128:128-f80:128-n8:16:32:64-S128"
target triple = "x86_64-pc-linux-gnu"

@hf_infiniband_vendor = internal global i32 0, align 4
@ett_vendor = internal global i32 0, align 4
@.str.1230 = private unnamed_addr constant [3 x i8] c"%s\00", align 1
@.str.1586 = private unnamed_addr constant [43 x i8] c"Vendor Specific or Unknown Header Sequence\00", align 1

; Function Attrs: null_pointer_is_valid sspstrong uwtable
define internal void @parse_VENDOR(ptr noundef %0, ptr noundef %1, ptr noundef %2) #0 {
  %4 = alloca ptr, align 8
  %5 = alloca ptr, align 8
  %6 = alloca ptr, align 8
  %7 = alloca i32, align 4
  %8 = alloca ptr, align 8
  %9 = alloca ptr, align 8
  %10 = alloca i32, align 4
  store ptr %0, ptr %4, align 8
  store ptr %1, ptr %5, align 8
  store ptr %2, ptr %6, align 8
  call void @llvm.lifetime.start.p0(i64 4, ptr %7) #18
  %11 = load ptr, ptr %6, align 8
  %12 = load i32, ptr %11, align 4
  store i32 %12, ptr %7, align 4
  call void @llvm.lifetime.start.p0(i64 8, ptr %8) #18
  call void @llvm.lifetime.start.p0(i64 8, ptr %9) #18
  call void @llvm.lifetime.start.p0(i64 4, ptr %10) #18
  %13 = load ptr, ptr %4, align 8
  %14 = load i32, ptr @hf_infiniband_vendor, align 4
  %15 = load ptr, ptr %5, align 8
  %16 = load i32, ptr %7, align 4
  %17 = call ptr @proto_tree_add_item(ptr noundef %13, i32 noundef %14, ptr noundef %15, i32 noundef %16, i32 noundef 4, i32 noundef 0)
  store ptr %17, ptr %8, align 8
  %18 = load ptr, ptr %8, align 8
  call void (ptr, ptr, ...) @proto_item_set_text(ptr noundef %18, ptr noundef @.str.1230, ptr noundef @.str.1586)
  %19 = load ptr, ptr %8, align 8
  %20 = load i32, ptr @ett_vendor, align 4
  %21 = call ptr @proto_item_add_subtree(ptr noundef %19, i32 noundef %20)
  store ptr %21, ptr %9, align 8
  %22 = load ptr, ptr %9, align 8
  %23 = load i32, ptr @hf_infiniband_vendor, align 4
  %24 = load ptr, ptr %5, align 8
  %25 = load i32, ptr %7, align 4
  %26 = call ptr @proto_tree_add_item_ret_length(ptr noundef %22, i32 noundef %23, ptr noundef %24, i32 noundef %25, i32 noundef -1, i32 noundef 0, ptr noundef %10)
  %27 = load i32, ptr %10, align 4
  %28 = load i32, ptr %7, align 4
  %29 = add i32 %28, %27
  store i32 %29, ptr %7, align 4
  %30 = load i32, ptr %7, align 4
  %31 = load ptr, ptr %6, align 8
  store i32 %30, ptr %31, align 4
  call void @llvm.lifetime.end.p0(i64 4, ptr %10) #18
  call void @llvm.lifetime.end.p0(i64 8, ptr %9) #18
  call void @llvm.lifetime.end.p0(i64 8, ptr %8) #18
  call void @llvm.lifetime.end.p0(i64 4, ptr %7) #18
  ret void
}