; Function Attrs: null_pointer_is_valid sspstrong uwtable
define internal fastcc void @parse_VENDOR(ptr noundef %0, ptr noundef %1, ptr noundef captures(none) %2) unnamed_addr #0 {
  %4 = alloca i32, align 4
  %5 = load i32, ptr %2, align 4
  call void @llvm.lifetime.start.p0(i64 4, ptr nonnull %4) #14
  %6 = load i32, ptr @hf_infiniband_vendor, align 4
  %7 = tail call ptr @proto_tree_add_item(ptr noundef %0, i32 noundef %6, ptr noundef %1, i32 noundef %5, i32 noundef 4, i32 noundef 0)
  tail call void (ptr, ptr, ...) @proto_item_set_text(ptr noundef %7, ptr noundef nonnull @.str.1230, ptr noundef nonnull @.str.1586)
  %8 = load i32, ptr @ett_vendor, align 4
  %9 = tail call ptr @proto_item_add_subtree(ptr noundef %7, i32 noundef %8)
  %10 = load i32, ptr @hf_infiniband_vendor, align 4
  %11 = call ptr @proto_tree_add_item_ret_length(ptr noundef %9, i32 noundef %10, ptr noundef %1, i32 noundef %5, i32 noundef -1, i32 noundef 0, ptr noundef nonnull %4)
  %12 = load i32, ptr %4, align 4
  %13 = add i32 %12, %5
  store i32 %13, ptr %2, align 4
  call void @llvm.lifetime.end.p0(i64 4, ptr nonnull %4) #14
  ret void
}